target datalayout = "e-m:e-p270:32:32-p271:32:32-p272:64:64-i64:64-i128:128-f80:128-n8:16:32:64-S128"
target triple = "x86_64-pc-linux-gnu"

%struct.AVCodecContext = type { ptr, i32, i32, ptr, i32, i32, ptr, ptr, ptr, i64, i32, i32, ptr, i32, %struct.AVRational, %struct.AVRational, %struct.AVRational, i32, i32, i32, i32, i32, %struct.AVRational, i32, i32, i32, i32, i32, i32, i32, i32, i32, i32, i32, ptr, ptr, i32, float, float, float, float, float, float, float, float, float, i32, i32, i32, i32, i32, i32, i32, i32, i32, i32, i32, i32, ptr, ptr, ptr, i32, i32, i32, i32, i32, i32, i32, i32, i32, i32, %struct.AVChannelLayout, i32, i32, i32, i32, i32, i32, i32, i32, ptr, i32, i32, i32, float, float, i32, i32, i32, i32, i32, ptr, i64, i64, float, float, i32, i32, ptr, ptr, i32, i32, i32, i32, i32, ptr, ptr, ptr, ptr, i32, i32, [8 x i64], i32, i32, i32, i32, i32, i32, i32, ptr, ptr, i32, i32, i32, i32, i32, i32, i32, i32, i32, i32, ptr, ptr, i32, i32, ptr, ptr, ptr, ptr, i32, i32, i64, i32, i32, i64, ptr, i64, ptr, i32, ptr, i32 }
%struct.AVRational = type { i32, i32 }
%struct.AVChannelLayout = type { i32, i32, %union.anon.0, ptr }
%union.anon.0 = type { i64 }
%struct.MDECContext = type { ptr, %struct.BlockDSPContext, %struct.BswapDSPContext, %struct.IDCTDSPContext, %struct.GetBitContext, [64 x i8], i32, i32, [3 x i32], i32, i32, i32, i32, [12 x i8], [6 x [64 x i16]], [64 x i16], ptr, i32 }
%struct.BlockDSPContext = type { ptr, ptr, [2 x ptr] }
%struct.BswapDSPContext = type { ptr, ptr }
%struct.IDCTDSPContext = type { ptr, ptr, ptr, ptr, ptr, ptr, [64 x i8], i32, i32 }
%struct.GetBitContext = type { ptr, ptr, i32, i32, i32 }

@ff_zigzag_direct = external constant [64 x i8], align 16
@ff_mpeg1_default_intra_matrix = external constant [0 x i16], align 2

; Function Attrs: cold nounwind optsize uwtable
define internal i32 @decode_init(ptr noundef %0) #0 {
  %2 = alloca ptr, align 8
  %3 = alloca ptr, align 8
  %4 = alloca i32, align 4
  %5 = alloca i32, align 4
  store ptr %0, ptr %2, align 8, !tbaa !4
  call void @llvm.lifetime.start.p0(i64 8, ptr %3) #7
  %6 = load ptr, ptr %2, align 8, !tbaa !4
  %7 = getelementptr inbounds nuw %struct.AVCodecContext, ptr %6, i32 0, i32 6
  %8 = load ptr, ptr %7, align 8, !tbaa !9
  store ptr %8, ptr %3, align 8, !tbaa !29
  call void @llvm.lifetime.start.p0(i64 4, ptr %4) #7
  %9 = load ptr, ptr %2, align 8, !tbaa !4
  %10 = getelementptr inbounds nuw %struct.AVCodecContext, ptr %9, i32 0, i32 20
  %11 = load i32, ptr %10, align 8, !tbaa !31
  %12 = add nsw i32 %11, 15
  %13 = sdiv i32 %12, 16
  %14 = load ptr, ptr %3, align 8, !tbaa !29
  %15 = getelementptr inbounds nuw %struct.MDECContext, ptr %14, i32 0, i32 9
  store i32 %13, ptr %15, align 4, !tbaa !32
  %16 = load ptr, ptr %2, align 8, !tbaa !4
  %17 = getelementptr inbounds nuw %struct.AVCodecContext, ptr %16, i32 0, i32 21
  %18 = load i32, ptr %17, align 4, !tbaa !38
  %19 = add nsw i32 %18, 15
  %20 = sdiv i32 %19, 16
  %21 = load ptr, ptr %3, align 8, !tbaa !29
  %22 = getelementptr inbounds nuw %struct.MDECContext, ptr %21, i32 0, i32 10
  store i32 %20, ptr %22, align 8, !tbaa !39
  %23 = load ptr, ptr %2, align 8, !tbaa !4
  %24 = load ptr, ptr %3, align 8, !tbaa !29
  %25 = getelementptr inbounds nuw %struct.MDECContext, ptr %24, i32 0, i32 0
  store ptr %23, ptr %25, align 16, !tbaa !40
  %26 = load ptr, ptr %3, align 8, !tbaa !29
  %27 = getelementptr inbounds nuw %struct.MDECContext, ptr %26, i32 0, i32 1
  call void @ff_blockdsp_init(ptr noundef %27)
  %28 = load ptr, ptr %3, align 8, !tbaa !29
  %29 = getelementptr inbounds nuw %struct.MDECContext, ptr %28, i32 0, i32 2
  call void @ff_bswapdsp_init(ptr noundef %29)
  %30 = load ptr, ptr %3, align 8, !tbaa !29
  %31 = getelementptr inbounds nuw %struct.MDECContext, ptr %30, i32 0, i32 3
  %32 = load ptr, ptr %2, align 8, !tbaa !4
  call void @ff_idctdsp_init(ptr noundef %31, ptr noundef %32)
  call void @ff_mpeg12_init_vlcs()
  %33 = load ptr, ptr %3, align 8, !tbaa !29
  %34 = getelementptr inbounds nuw %struct.MDECContext, ptr %33, i32 0, i32 5
  %35 = getelementptr inbounds [64 x i8], ptr %34, i64 0, i64 0
  %36 = load ptr, ptr %3, align 8, !tbaa !29
  %37 = getelementptr inbounds nuw %struct.MDECContext, ptr %36, i32 0, i32 3
  %38 = getelementptr inbounds nuw %struct.IDCTDSPContext, ptr %37, i32 0, i32 6
  %39 = getelementptr inbounds [64 x i8], ptr %38, i64 0, i64 0
  call void @ff_permute_scantable(ptr noundef %35, ptr noundef @ff_zigzag_direct, ptr noundef %39)
  %40 = load ptr, ptr %2, align 8, !tbaa !4
  %41 = getelementptr inbounds nuw %struct.AVCodecContext, ptr %40, i32 0, i32 23
  store i32 12, ptr %41, align 8, !tbaa !41
  %42 = load ptr, ptr %2, align 8, !tbaa !4
  %43 = getelementptr inbounds nuw %struct.AVCodecContext, ptr %42, i32 0, i32 28
  store i32 2, ptr %43, align 4, !tbaa !42
  store i32 0, ptr %4, align 4, !tbaa !43
  br label %44

44:                                               ; preds = %65, %1
  %45 = load i32, ptr %4, align 4, !tbaa !43
  %46 = icmp slt i32 %45, 64
  br i1 %46, label %47, label %68

47:                                               ; preds = %44
  call void @llvm.lifetime.start.p0(i64 4, ptr %5) #7
  %48 = load ptr, ptr %3, align 8, !tbaa !29
  %49 = getelementptr inbounds nuw %struct.MDECContext, ptr %48, i32 0, i32 3
  %50 = getelementptr inbounds nuw %struct.IDCTDSPContext, ptr %49, i32 0, i32 6
  %51 = load i32, ptr %4, align 4, !tbaa !43
  %52 = sext i32 %51 to i64
  %53 = getelementptr inbounds [64 x i8], ptr %50, i64 0, i64 %52
  %54 = load i8, ptr %53, align 1, !tbaa !44
  %55 = zext i8 %54 to i32
  store i32 %55, ptr %5, align 4, !tbaa !43
  %56 = load i32, ptr %4, align 4, !tbaa !43
  %57 = sext i32 %56 to i64
  %58 = getelementptr inbounds [0 x i16], ptr @ff_mpeg1_default_intra_matrix, i64 0, i64 %57
  %59 = load i16, ptr %58, align 2, !tbaa !45
  %60 = load ptr, ptr %3, align 8, !tbaa !29
  %61 = getelementptr inbounds nuw %struct.MDECContext, ptr %60, i32 0, i32 15
  %62 = load i32, ptr %5, align 4, !tbaa !43
  %63 = sext i32 %62 to i64
  %64 = getelementptr inbounds [64 x i16], ptr %61, i64 0, i64 %63
  store i16 %59, ptr %64, align 2, !tbaa !45
  call void @llvm.lifetime.end.p0(i64 4, ptr %5) #7
  br label %65

65:                                               ; preds = %47
  %66 = load i32, ptr %4, align 4, !tbaa !43
  %67 = add nsw i32 %66, 1
  store i32 %67, ptr %4, align 4, !tbaa !43
  br label %44, !llvm.loop !47

68:                                               ; preds = %44
  call void @llvm.lifetime.end.p0(i64 4, ptr %4) #7
  call void @llvm.lifetime.end.p0(i64 8, ptr %3) #7
  ret i32 0
}