; Function Attrs: cold nounwind optsize uwtable
define internal noundef i32 @decode_init(ptr noundef %0) #0 {
  %2 = getelementptr inbounds nuw i8, ptr %0, i64 32
  %3 = load ptr, ptr %2, align 8, !tbaa !4
  %4 = getelementptr inbounds nuw i8, ptr %0, i64 120
  %5 = load i32, ptr %4, align 8, !tbaa !27
  %6 = add nsw i32 %5, 15
  %7 = sdiv i32 %6, 16
  %8 = getelementptr inbounds nuw i8, ptr %3, i64 292
  store i32 %7, ptr %8, align 4, !tbaa !28
  %9 = getelementptr inbounds nuw i8, ptr %0, i64 124
  %10 = load i32, ptr %9, align 4, !tbaa !35
  %11 = add nsw i32 %10, 15
  %12 = sdiv i32 %11, 16
  %13 = getelementptr inbounds nuw i8, ptr %3, i64 296
  store i32 %12, ptr %13, align 8, !tbaa !36
  store ptr %0, ptr %3, align 16, !tbaa !37
  %14 = getelementptr inbounds nuw i8, ptr %3, i64 8
  tail call void @ff_blockdsp_init(ptr noundef nonnull %14) #4
  %15 = getelementptr inbounds nuw i8, ptr %3, i64 40
  tail call void @ff_bswapdsp_init(ptr noundef nonnull %15) #4
  %16 = getelementptr inbounds nuw i8, ptr %3, i64 56
  tail call void @ff_idctdsp_init(ptr noundef nonnull %16, ptr noundef %0) #4
  tail call void @ff_mpeg12_init_vlcs() #4
  %17 = getelementptr inbounds nuw i8, ptr %3, i64 208
  %18 = getelementptr inbounds nuw i8, ptr %3, i64 104
  tail call void @ff_permute_scantable(ptr noundef nonnull %17, ptr noundef nonnull @ff_zigzag_direct, ptr noundef nonnull %18) #4
  %19 = getelementptr inbounds nuw i8, ptr %0, i64 136
  store i32 12, ptr %19, align 8, !tbaa !38
  %20 = getelementptr inbounds nuw i8, ptr %0, i64 156
  store i32 2, ptr %20, align 4, !tbaa !39
  %21 = getelementptr inbounds nuw i8, ptr %3, i64 1088
  br label %22

22:                                               ; preds = %1, %22
  %indvars.iv = phi i64 [ 0, %1 ], [ %indvars.iv.next, %22 ]
  %23 = getelementptr inbounds nuw [64 x i8], ptr %18, i64 0, i64 %indvars.iv
  %24 = load i8, ptr %23, align 1, !tbaa !40
  %25 = getelementptr inbounds nuw [0 x i16], ptr @ff_mpeg1_default_intra_matrix, i64 0, i64 %indvars.iv
  %26 = load i16, ptr %25, align 2, !tbaa !41
  %27 = zext i8 %24 to i64
  %28 = getelementptr inbounds nuw [64 x i16], ptr %21, i64 0, i64 %27
  store i16 %26, ptr %28, align 2, !tbaa !41
  %indvars.iv.next = add nuw nsw i64 %indvars.iv, 1
  %exitcond.not = icmp eq i64 %indvars.iv.next, 64
  br i1 %exitcond.not, label %29, label %22, !llvm.loop !43

29:                                               ; preds = %22
  ret i32 0
}